; Function Attrs: nounwind uwtable
define i32 @Tclsqlite_Init(ptr noundef %0) local_unnamed_addr #0 {
  %2 = tail call ptr @Tcl_InitStubs(ptr noundef %0, ptr noundef nonnull @.str, i32 noundef 0) #14
  %.not.i = icmp eq ptr %2, null
  br i1 %.not.i, label %Sqlite3_Init.exit, label %3

3:                                                ; preds = %1
  %4 = load ptr, ptr @tclStubsPtr, align 8, !tbaa !3
  %5 = getelementptr inbounds nuw i8, ptr %4, i64 784
  %6 = load ptr, ptr %5, align 8, !tbaa !8
  %7 = tail call ptr %6(ptr noundef %0, ptr noundef nonnull @.str.1, ptr noundef nonnull @DbMain, ptr noundef null, ptr noundef null) #14
  %8 = load ptr, ptr @tclStubsPtr, align 8, !tbaa !3
  %9 = getelementptr inbounds nuw i8, ptr %8, i64 784
  %10 = load ptr, ptr %9, align 8, !tbaa !8
  %11 = tail call ptr %10(ptr noundef %0, ptr noundef nonnull @.str.2, ptr noundef nonnull @DbMain, ptr noundef null, ptr noundef null) #14
  %12 = load ptr, ptr @tclStubsPtr, align 8, !tbaa !3
  %13 = getelementptr inbounds nuw i8, ptr %12, i64 16
  %14 = load ptr, ptr %13, align 8, !tbaa !11
  %15 = tail call i32 %14(ptr noundef %0, ptr noundef nonnull @.str.1, ptr noundef nonnull @.str.3, ptr noundef null) #14
  br label %Sqlite3_Init.exit

Sqlite3_Init.exit:                                ; preds = %1, %3
  %.0.i = phi i32 [ %15, %3 ], [ 1, %1 ]
  ret i32 %.0.i
}